target datalayout = "e-m:e-p270:32:32-p271:32:32-p272:64:64-i64:64-i128:128-f80:128-n8:16:32:64-S128"
target triple = "x86_64-pc-linux-gnu"

%"struct.arrow::ArrayData" = type { %"class.std::shared_ptr", i64, %"struct.std::atomic", i64, %"class.std::vector", %"class.std::vector.0", %"class.std::shared_ptr.5", %"class.std::shared_ptr.8" }
%"class.std::shared_ptr" = type { %"class.std::__shared_ptr" }
%"class.std::__shared_ptr" = type { ptr, %"class.std::__shared_count" }
%"class.std::__shared_count" = type { ptr }
%"struct.std::atomic" = type { %"struct.std::__atomic_base" }
%"struct.std::__atomic_base" = type { i64 }
%"class.std::vector" = type { %"struct.std::_Vector_base" }
%"struct.std::_Vector_base" = type { %"struct.std::_Vector_base<std::shared_ptr<arrow::Buffer>, std::allocator<std::shared_ptr<arrow::Buffer>>>::_Vector_impl" }
%"struct.std::_Vector_base<std::shared_ptr<arrow::Buffer>, std::allocator<std::shared_ptr<arrow::Buffer>>>::_Vector_impl" = type { %"struct.std::_Vector_base<std::shared_ptr<arrow::Buffer>, std::allocator<std::shared_ptr<arrow::Buffer>>>::_Vector_impl_data" }
%"struct.std::_Vector_base<std::shared_ptr<arrow::Buffer>, std::allocator<std::shared_ptr<arrow::Buffer>>>::_Vector_impl_data" = type { ptr, ptr, ptr }
%"class.std::vector.0" = type { %"struct.std::_Vector_base.1" }
%"struct.std::_Vector_base.1" = type { %"struct.std::_Vector_base<std::shared_ptr<arrow::ArrayData>, std::allocator<std::shared_ptr<arrow::ArrayData>>>::_Vector_impl" }
%"struct.std::_Vector_base<std::shared_ptr<arrow::ArrayData>, std::allocator<std::shared_ptr<arrow::ArrayData>>>::_Vector_impl" = type { %"struct.std::_Vector_base<std::shared_ptr<arrow::ArrayData>, std::allocator<std::shared_ptr<arrow::ArrayData>>>::_Vector_impl_data" }
%"struct.std::_Vector_base<std::shared_ptr<arrow::ArrayData>, std::allocator<std::shared_ptr<arrow::ArrayData>>>::_Vector_impl_data" = type { ptr, ptr, ptr }
%"class.std::shared_ptr.5" = type { %"class.std::__shared_ptr.6" }
%"class.std::__shared_ptr.6" = type { ptr, %"class.std::__shared_count" }
%"class.std::shared_ptr.8" = type { %"class.std::__shared_ptr.9" }
%"class.std::__shared_ptr.9" = type { ptr, %"class.std::__shared_count" }
%"class.std::shared_ptr.11" = type { %"class.std::__shared_ptr.12" }
%"class.std::__shared_ptr.12" = type { ptr, %"class.std::__shared_count" }
%"class.arrow::Buffer" = type { ptr, i8, i8, ptr, i64, i64, i8, %"class.std::shared_ptr.11", %"class.std::shared_ptr.14" }
%"class.std::shared_ptr.14" = type { %"class.std::__shared_ptr.15" }
%"class.std::__shared_ptr.15" = type { ptr, %"class.std::__shared_count" }
%"class.arrow::UnionType" = type { %"class.arrow::NestedType", %"class.std::vector.24", %"class.std::vector.29" }
%"class.arrow::NestedType" = type { %"class.arrow::DataType" }
%"class.arrow::DataType" = type { %"class.arrow::detail::Fingerprintable", %"class.std::enable_shared_from_this", i32, %"class.std::vector.19" }
%"class.arrow::detail::Fingerprintable" = type { ptr, %"struct.std::atomic.17", %"struct.std::atomic.17" }
%"struct.std::atomic.17" = type { %"struct.std::__atomic_base.18" }
%"struct.std::__atomic_base.18" = type { ptr }
%"class.std::enable_shared_from_this" = type { %"class.std::weak_ptr" }
%"class.std::weak_ptr" = type { %"class.std::__weak_ptr" }
%"class.std::__weak_ptr" = type { ptr, %"class.std::__weak_count" }
%"class.std::__weak_count" = type { ptr }
%"class.std::vector.19" = type { %"struct.std::_Vector_base.20" }
%"struct.std::_Vector_base.20" = type { %"struct.std::_Vector_base<std::shared_ptr<arrow::Field>, std::allocator<std::shared_ptr<arrow::Field>>>::_Vector_impl" }
%"struct.std::_Vector_base<std::shared_ptr<arrow::Field>, std::allocator<std::shared_ptr<arrow::Field>>>::_Vector_impl" = type { %"struct.std::_Vector_base<std::shared_ptr<arrow::Field>, std::allocator<std::shared_ptr<arrow::Field>>>::_Vector_impl_data" }
%"struct.std::_Vector_base<std::shared_ptr<arrow::Field>, std::allocator<std::shared_ptr<arrow::Field>>>::_Vector_impl_data" = type { ptr, ptr, ptr }
%"class.std::vector.24" = type { %"struct.std::_Vector_base.25" }
%"struct.std::_Vector_base.25" = type { %"struct.std::_Vector_base<signed char, std::allocator<signed char>>::_Vector_impl" }
%"struct.std::_Vector_base<signed char, std::allocator<signed char>>::_Vector_impl" = type { %"struct.std::_Vector_base<signed char, std::allocator<signed char>>::_Vector_impl_data" }
%"struct.std::_Vector_base<signed char, std::allocator<signed char>>::_Vector_impl_data" = type { ptr, ptr, ptr }
%"class.std::vector.29" = type { %"struct.std::_Vector_base.30" }
%"struct.std::_Vector_base.30" = type { %"struct.std::_Vector_base<int, std::allocator<int>>::_Vector_impl" }
%"struct.std::_Vector_base<int, std::allocator<int>>::_Vector_impl" = type { %"struct.std::_Vector_base<int, std::allocator<int>>::_Vector_impl_data" }
%"struct.std::_Vector_base<int, std::allocator<int>>::_Vector_impl_data" = type { ptr, ptr, ptr }

; Function Attrs: mustprogress nounwind uwtable
define linkonce_odr noundef ptr @_ZNKSt12__shared_ptrIN5arrow9ArrayDataELN9__gnu_cxx12_Lock_policyE2EE3getEv(ptr noundef nonnull align 8 dereferenceable(16) %0) #3 comdat align 2 {
  %2 = alloca ptr, align 8
  store ptr %0, ptr %2, align 8, !tbaa !179
  %3 = load ptr, ptr %2, align 8
  %4 = getelementptr inbounds nuw %"class.std::__shared_ptr.6", ptr %3, i32 0, i32 0
  %5 = load ptr, ptr %4, align 8, !tbaa !181
  ret ptr %5
}

; Function Attrs: mustprogress nounwind uwtable
define linkonce_odr noundef ptr @_ZNKSt12__shared_ptrIN5arrow6BufferELN9__gnu_cxx12_Lock_policyE2EE3getEv(ptr noundef nonnull align 8 dereferenceable(16) %0) #3 comdat align 2 {
  %2 = alloca ptr, align 8
  store ptr %0, ptr %2, align 8, !tbaa !167
  %3 = load ptr, ptr %2, align 8
  %4 = getelementptr inbounds nuw %"class.std::__shared_ptr.12", ptr %3, i32 0, i32 0
  %5 = load ptr, ptr %4, align 8, !tbaa !169
  ret ptr %5
}

; Function Attrs: mustprogress nounwind uwtable
define linkonce_odr noundef ptr @_ZNKSt19__shared_ptr_accessIN5arrow9ArrayDataELN9__gnu_cxx12_Lock_policyE2ELb0ELb0EE6_M_getEv(ptr noundef nonnull align 1 dereferenceable(1) %0) #3 comdat align 2 {
  %2 = alloca ptr, align 8
  store ptr %0, ptr %2, align 8, !tbaa !76
  %3 = load ptr, ptr %2, align 8
  %4 = call noundef ptr @_ZNKSt12__shared_ptrIN5arrow9ArrayDataELN9__gnu_cxx12_Lock_policyE2EE3getEv(ptr noundef nonnull align 8 dereferenceable(16) %3) #20
  ret ptr %4
}

; Function Attrs: mustprogress nounwind uwtable
define linkonce_odr noundef ptr @_ZNKSt19__shared_ptr_accessIN5arrow6BufferELN9__gnu_cxx12_Lock_policyE2ELb0ELb0EE6_M_getEv(ptr noundef nonnull align 1 dereferenceable(1) %0) #3 comdat align 2 {
  %2 = alloca ptr, align 8
  store ptr %0, ptr %2, align 8, !tbaa !50
  %3 = load ptr, ptr %2, align 8
  %4 = call noundef ptr @_ZNKSt12__shared_ptrIN5arrow6BufferELN9__gnu_cxx12_Lock_policyE2EE3getEv(ptr noundef nonnull align 8 dereferenceable(16) %3) #20
  ret ptr %4
}

; Function Attrs: mustprogress uwtable
define linkonce_odr noundef zeroext i1 @_ZNK5arrow9ArrayData6IsNullEl(ptr noundef nonnull align 8 dereferenceable(120) %0, i64 noundef %1) #0 comdat align 2 {
  %3 = alloca ptr, align 8
  %4 = alloca i64, align 8
  store ptr %0, ptr %3, align 8, !tbaa !3
  store i64 %1, ptr %4, align 8, !tbaa !8
  %5 = load ptr, ptr %3, align 8
  %6 = load i64, ptr %4, align 8, !tbaa !8
  %7 = call noundef zeroext i1 @_ZNK5arrow9ArrayData7IsValidEl(ptr noundef nonnull align 8 dereferenceable(120) %5, i64 noundef %6)
  %8 = xor i1 %7, true
  ret i1 %8
}

; Function Attrs: mustprogress nounwind uwtable
define linkonce_odr noundef ptr @_ZNKSt19__shared_ptr_accessIN5arrow9ArrayDataELN9__gnu_cxx12_Lock_policyE2ELb0ELb0EEptEv(ptr noundef nonnull align 1 dereferenceable(1) %0) #3 comdat align 2 {
  %2 = alloca ptr, align 8
  store ptr %0, ptr %2, align 8, !tbaa !76
  %3 = load ptr, ptr %2, align 8
  %4 = call noundef ptr @_ZNKSt19__shared_ptr_accessIN5arrow9ArrayDataELN9__gnu_cxx12_Lock_policyE2ELb0ELb0EE6_M_getEv(ptr noundef nonnull align 1 dereferenceable(1) %3) #20
  ret ptr %4
}

; Function Attrs: mustprogress nounwind uwtable
define linkonce_odr noundef nonnull align 8 dereferenceable(16) ptr @_ZNKSt6vectorISt10shared_ptrIN5arrow9ArrayDataEESaIS3_EEixEm(ptr noundef nonnull align 8 dereferenceable(24) %0, i64 noundef %1) #3 comdat align 2 {
  %3 = alloca ptr, align 8
  %4 = alloca i64, align 8
  store ptr %0, ptr %3, align 8, !tbaa !73
  store i64 %1, ptr %4, align 8, !tbaa !8
  %5 = load ptr, ptr %3, align 8
  %6 = getelementptr inbounds nuw %"struct.std::_Vector_base.1", ptr %5, i32 0, i32 0
  %7 = getelementptr inbounds nuw %"struct.std::_Vector_base<std::shared_ptr<arrow::ArrayData>, std::allocator<std::shared_ptr<arrow::ArrayData>>>::_Vector_impl_data", ptr %6, i32 0, i32 0
  %8 = load ptr, ptr %7, align 8, !tbaa !75
  %9 = load i64, ptr %4, align 8, !tbaa !8
  %10 = getelementptr inbounds nuw %"class.std::shared_ptr.5", ptr %8, i64 %9
  ret ptr %10
}

; Function Attrs: mustprogress nounwind uwtable
define linkonce_odr noundef nonnull align 4 dereferenceable(4) ptr @_ZNKSt6vectorIiSaIiEEixEm(ptr noundef nonnull align 8 dereferenceable(24) %0, i64 noundef %1) #3 comdat align 2 {
  %3 = alloca ptr, align 8
  %4 = alloca i64, align 8
  store ptr %0, ptr %3, align 8, !tbaa !68
  store i64 %1, ptr %4, align 8, !tbaa !8
  %5 = load ptr, ptr %3, align 8
  %6 = getelementptr inbounds nuw %"struct.std::_Vector_base.30", ptr %5, i32 0, i32 0
  %7 = getelementptr inbounds nuw %"struct.std::_Vector_base<int, std::allocator<int>>::_Vector_impl_data", ptr %6, i32 0, i32 0
  %8 = load ptr, ptr %7, align 8, !tbaa !70
  %9 = load i64, ptr %4, align 8, !tbaa !8
  %10 = getelementptr inbounds nuw i32, ptr %8, i64 %9
  ret ptr %10
}

; Function Attrs: mustprogress nounwind uwtable
define linkonce_odr noundef nonnull align 8 dereferenceable(24) ptr @_ZNK5arrow9UnionType9child_idsEv(ptr noundef nonnull align 8 dereferenceable(120) %0) #3 comdat align 2 {
  %2 = alloca ptr, align 8
  store ptr %0, ptr %2, align 8, !tbaa !66
  %3 = load ptr, ptr %2, align 8
  %4 = getelementptr inbounds nuw %"class.arrow::UnionType", ptr %3, i32 0, i32 2
  ret ptr %4
}

; Function Attrs: mustprogress nounwind uwtable
define linkonce_odr noundef ptr @_ZNK5arrow6Buffer4dataEv(ptr noundef nonnull align 8 dereferenceable(80) %0) #3 comdat align 2 {
  %2 = alloca ptr, align 8
  store ptr %0, ptr %2, align 8, !tbaa !52
  %3 = load ptr, ptr %2, align 8
  %4 = getelementptr inbounds nuw %"class.arrow::Buffer", ptr %3, i32 0, i32 2
  %5 = load i8, ptr %4, align 1, !tbaa !54, !range !63, !noundef !64
  %6 = trunc i8 %5 to i1
  %7 = xor i1 %6, true
  %8 = xor i1 %7, true
  %9 = zext i1 %8 to i64
  %10 = call i64 @llvm.expect.i64(i64 %9, i64 1)
  %11 = icmp ne i64 %10, 0
  br i1 %11, label %12, label %15

12:                                               ; preds = %1
  %13 = getelementptr inbounds nuw %"class.arrow::Buffer", ptr %3, i32 0, i32 3
  %14 = load ptr, ptr %13, align 8, !tbaa !65
  br label %16

15:                                               ; preds = %1
  br label %16

16:                                               ; preds = %15, %12
  %17 = phi ptr [ %14, %12 ], [ null, %15 ]
  ret ptr %17
}

; Function Attrs: mustprogress nounwind uwtable
define linkonce_odr noundef ptr @_ZNKSt19__shared_ptr_accessIN5arrow6BufferELN9__gnu_cxx12_Lock_policyE2ELb0ELb0EEptEv(ptr noundef nonnull align 1 dereferenceable(1) %0) #3 comdat align 2 {
  %2 = alloca ptr, align 8
  store ptr %0, ptr %2, align 8, !tbaa !50
  %3 = load ptr, ptr %2, align 8
  %4 = call noundef ptr @_ZNKSt19__shared_ptr_accessIN5arrow6BufferELN9__gnu_cxx12_Lock_policyE2ELb0ELb0EE6_M_getEv(ptr noundef nonnull align 1 dereferenceable(1) %3) #20
  ret ptr %4
}

; Function Attrs: mustprogress nounwind uwtable
define linkonce_odr noundef nonnull align 8 dereferenceable(16) ptr @_ZNKSt6vectorISt10shared_ptrIN5arrow6BufferEESaIS3_EEixEm(ptr noundef nonnull align 8 dereferenceable(24) %0, i64 noundef %1) #3 comdat align 2 {
  %3 = alloca ptr, align 8
  %4 = alloca i64, align 8
  store ptr %0, ptr %3, align 8, !tbaa !47
  store i64 %1, ptr %4, align 8, !tbaa !8
  %5 = load ptr, ptr %3, align 8
  %6 = getelementptr inbounds nuw %"struct.std::_Vector_base", ptr %5, i32 0, i32 0
  %7 = getelementptr inbounds nuw %"struct.std::_Vector_base<std::shared_ptr<arrow::Buffer>, std::allocator<std::shared_ptr<arrow::Buffer>>>::_Vector_impl_data", ptr %6, i32 0, i32 0
  %8 = load ptr, ptr %7, align 8, !tbaa !49
  %9 = load i64, ptr %4, align 8, !tbaa !8
  %10 = getelementptr inbounds nuw %"class.std::shared_ptr.11", ptr %8, i64 %9
  ret ptr %10
}

; Function Attrs: inlinehint mustprogress nounwind uwtable
define linkonce_odr noundef ptr @_ZN5arrow8internal12checked_castIPKNS_15SparseUnionTypeEPNS_8DataTypeEEET_OT0_(ptr noundef nonnull align 8 dereferenceable(8) %0) #2 comdat {
  %2 = alloca ptr, align 8
  store ptr %0, ptr %2, align 8, !tbaa !42
  %3 = load ptr, ptr %2, align 8, !tbaa !42
  %4 = load ptr, ptr %3, align 8, !tbaa !10
  ret ptr %4
}

; Function Attrs: mustprogress nounwind uwtable
define linkonce_odr noundef ptr @_ZNKSt12__shared_ptrIN5arrow8DataTypeELN9__gnu_cxx12_Lock_policyE2EE3getEv(ptr noundef nonnull align 8 dereferenceable(16) %0) #3 comdat align 2 {
  %2 = alloca ptr, align 8
  store ptr %0, ptr %2, align 8, !tbaa !44
  %3 = load ptr, ptr %2, align 8
  %4 = getelementptr inbounds nuw %"class.std::__shared_ptr", ptr %3, i32 0, i32 0
  %5 = load ptr, ptr %4, align 8, !tbaa !46
  ret ptr %5
}

; Function Attrs: mustprogress uwtable
define noundef zeroext i1 @_ZN5arrow8internal17IsNullSparseUnionERKNS_9ArrayDataEl(ptr noundef nonnull align 8 dereferenceable(120) %0, i64 noundef %1) #0 {
  %3 = alloca ptr, align 8
  %4 = alloca i64, align 8
  %5 = alloca ptr, align 8
  %6 = alloca ptr, align 8
  %7 = alloca ptr, align 8
  %8 = alloca i32, align 4
  store ptr %0, ptr %3, align 8, !tbaa !3
  store i64 %1, ptr %4, align 8, !tbaa !8
  call void @llvm.lifetime.start.p0(i64 8, ptr %5) #20
  call void @llvm.lifetime.start.p0(i64 8, ptr %6) #20
  %9 = load ptr, ptr %3, align 8, !tbaa !3
  %10 = getelementptr inbounds nuw %"struct.arrow::ArrayData", ptr %9, i32 0, i32 0
  %11 = call noundef ptr @_ZNKSt12__shared_ptrIN5arrow8DataTypeELN9__gnu_cxx12_Lock_policyE2EE3getEv(ptr noundef nonnull align 8 dereferenceable(16) %10) #20
  store ptr %11, ptr %6, align 8, !tbaa !10
  %12 = call noundef ptr @_ZN5arrow8internal12checked_castIPKNS_15SparseUnionTypeEPNS_8DataTypeEEET_OT0_(ptr noundef nonnull align 8 dereferenceable(8) %6)
  call void @llvm.lifetime.end.p0(i64 8, ptr %6) #20
  store ptr %12, ptr %5, align 8, !tbaa !12
  call void @llvm.lifetime.start.p0(i64 8, ptr %7) #20
  %13 = load ptr, ptr %3, align 8, !tbaa !3
  %14 = getelementptr inbounds nuw %"struct.arrow::ArrayData", ptr %13, i32 0, i32 4
  %15 = call noundef nonnull align 8 dereferenceable(16) ptr @_ZNKSt6vectorISt10shared_ptrIN5arrow6BufferEESaIS3_EEixEm(ptr noundef nonnull align 8 dereferenceable(24) %14, i64 noundef 1) #20
  %16 = call noundef ptr @_ZNKSt19__shared_ptr_accessIN5arrow6BufferELN9__gnu_cxx12_Lock_policyE2ELb0ELb0EEptEv(ptr noundef nonnull align 1 dereferenceable(1) %15) #20
  %17 = call noundef ptr @_ZNK5arrow6Buffer4dataEv(ptr noundef nonnull align 8 dereferenceable(80) %16)
  store ptr %17, ptr %7, align 8, !tbaa !14
  call void @llvm.lifetime.start.p0(i64 4, ptr %8) #20
  %18 = load ptr, ptr %5, align 8, !tbaa !12
  %19 = call noundef nonnull align 8 dereferenceable(24) ptr @_ZNK5arrow9UnionType9child_idsEv(ptr noundef nonnull align 8 dereferenceable(120) %18)
  %20 = load ptr, ptr %7, align 8, !tbaa !14
  %21 = load ptr, ptr %3, align 8, !tbaa !3
  %22 = getelementptr inbounds nuw %"struct.arrow::ArrayData", ptr %21, i32 0, i32 3
  %23 = load i64, ptr %22, align 8, !tbaa !16
  %24 = load i64, ptr %4, align 8, !tbaa !8
  %25 = add nsw i64 %23, %24
  %26 = getelementptr inbounds i8, ptr %20, i64 %25
  %27 = load i8, ptr %26, align 1, !tbaa !39
  %28 = sext i8 %27 to i64
  %29 = call noundef nonnull align 4 dereferenceable(4) ptr @_ZNKSt6vectorIiSaIiEEixEm(ptr noundef nonnull align 8 dereferenceable(24) %19, i64 noundef %28) #20
  %30 = load i32, ptr %29, align 4, !tbaa !40
  store i32 %30, ptr %8, align 4, !tbaa !40
  %31 = load ptr, ptr %3, align 8, !tbaa !3
  %32 = getelementptr inbounds nuw %"struct.arrow::ArrayData", ptr %31, i32 0, i32 5
  %33 = load i32, ptr %8, align 4, !tbaa !40
  %34 = sext i32 %33 to i64
  %35 = call noundef nonnull align 8 dereferenceable(16) ptr @_ZNKSt6vectorISt10shared_ptrIN5arrow9ArrayDataEESaIS3_EEixEm(ptr noundef nonnull align 8 dereferenceable(24) %32, i64 noundef %34) #20
  %36 = call noundef ptr @_ZNKSt19__shared_ptr_accessIN5arrow9ArrayDataELN9__gnu_cxx12_Lock_policyE2ELb0ELb0EEptEv(ptr noundef nonnull align 1 dereferenceable(1) %35) #20
  %37 = load i64, ptr %4, align 8, !tbaa !8
  %38 = call noundef zeroext i1 @_ZNK5arrow9ArrayData6IsNullEl(ptr noundef nonnull align 8 dereferenceable(120) %36, i64 noundef %37)
  call void @llvm.lifetime.end.p0(i64 4, ptr %8) #20
  call void @llvm.lifetime.end.p0(i64 8, ptr %7) #20
  call void @llvm.lifetime.end.p0(i64 8, ptr %5) #20
  ret i1 %38
}