; Function Attrs: mustprogress uwtable
define noundef zeroext i1 @_ZN5arrow8internal17IsNullSparseUnionERKNS_9ArrayDataEl(ptr noundef nonnull readonly align 8 captures(none) dereferenceable(120) %0, i64 noundef %1) local_unnamed_addr #0 {
  %3 = load ptr, ptr %0, align 8, !tbaa !3
  %4 = getelementptr inbounds nuw i8, ptr %0, i64 40
  %5 = load ptr, ptr %4, align 8, !tbaa !11
  %6 = getelementptr inbounds nuw i8, ptr %5, i64 16
  %7 = load ptr, ptr %6, align 8, !tbaa !14
  %8 = getelementptr inbounds nuw i8, ptr %7, i64 9
  %9 = load i8, ptr %8, align 1, !tbaa !17, !range !27, !noundef !28
  %10 = trunc nuw i8 %9 to i1
  %11 = getelementptr inbounds nuw i8, ptr %7, i64 16
  %12 = load ptr, ptr %11, align 8
  %13 = select i1 %10, ptr %12, ptr null, !prof !29
  %14 = getelementptr inbounds nuw i8, ptr %3, i64 96
  %15 = getelementptr inbounds nuw i8, ptr %0, i64 32
  %16 = load i64, ptr %15, align 8, !tbaa !30
  %17 = getelementptr i8, ptr %13, i64 %16
  %18 = getelementptr i8, ptr %17, i64 %1
  %19 = load i8, ptr %18, align 1, !tbaa !49
  %20 = sext i8 %19 to i64
  %21 = load ptr, ptr %14, align 8, !tbaa !50
  %22 = getelementptr inbounds nuw i32, ptr %21, i64 %20
  %23 = load i32, ptr %22, align 4, !tbaa !53
  %24 = getelementptr inbounds nuw i8, ptr %0, i64 64
  %25 = sext i32 %23 to i64
  %26 = load ptr, ptr %24, align 8, !tbaa !55
  %27 = getelementptr inbounds nuw %"class.std::shared_ptr.5", ptr %26, i64 %25
  %28 = load ptr, ptr %27, align 8, !tbaa !56
  %29 = tail call noundef zeroext i1 @_ZNK5arrow9ArrayData7IsValidEl(ptr noundef nonnull align 8 dereferenceable(120) %28, i64 noundef %1)
  %30 = xor i1 %29, true
  ret i1 %30
}